; Function Attrs: mustprogress nounwind uwtable
define void @_ZNK4LIEF3dsc15DyldSharedCache11disassembleEm(ptr dead_on_unwind noalias writable sret(%"class.LIEF::iterator_range") align 8 %0, ptr noundef nonnull readnone align 8 captures(none) dereferenceable(8) %1, i64 noundef %2) local_unnamed_addr #1 align 2 {
  %4 = alloca %"class.LIEF::assembly::Instruction::Iterator", align 8
  %5 = alloca %"class.LIEF::assembly::Instruction::Iterator", align 8
  call void @llvm.lifetime.start.p0(i64 8, ptr nonnull %4) #23
  call void @_ZN4LIEF8assembly11Instruction8IteratorC1Ev(ptr noundef nonnull align 8 dereferenceable(8) %4) #23
  call void @llvm.lifetime.start.p0(i64 8, ptr nonnull %5) #23
  call void @_ZN4LIEF8assembly11Instruction8IteratorC1Ev(ptr noundef nonnull align 8 dereferenceable(8) %5) #23
  call void @_ZN4LIEF8assembly11Instruction8IteratorC1EOS2_(ptr noundef nonnull align 8 dereferenceable(16) %0, ptr noundef nonnull align 8 dereferenceable(8) %4) #23
  %6 = getelementptr inbounds nuw i8, ptr %0, i64 8
  call void @_ZN4LIEF8assembly11Instruction8IteratorC1EOS2_(ptr noundef nonnull align 8 dereferenceable(8) %6, ptr noundef nonnull align 8 dereferenceable(8) %5) #23
  call void @_ZN4LIEF8assembly11Instruction8IteratorD1Ev(ptr noundef nonnull align 8 dereferenceable(8) %5) #23
  call void @llvm.lifetime.end.p0(i64 8, ptr nonnull %5) #23
  call void @_ZN4LIEF8assembly11Instruction8IteratorD1Ev(ptr noundef nonnull align 8 dereferenceable(8) %4) #23
  call void @llvm.lifetime.end.p0(i64 8, ptr nonnull %4) #23
  ret void
}